; Function Attrs: nounwind uwtable
define dso_local i64 @array_unnest_support(ptr noundef readonly captures(none) %0) local_unnamed_addr #0 {
  %2 = getelementptr inbounds nuw i8, ptr %0, i64 32
  %3 = load i64, ptr %2, align 8
  %4 = inttoptr i64 %3 to ptr
  %5 = load i32, ptr %4, align 4
  %6 = icmp eq i32 %5, 459
  br i1 %6, label %7, label %is_funcclause.exit.thread

7:                                                ; preds = %1
  %8 = getelementptr inbounds nuw i8, ptr %4, i64 24
  %9 = load ptr, ptr %8, align 8
  %.not.i = icmp eq ptr %9, null
  br i1 %.not.i, label %is_funcclause.exit.thread, label %is_funcclause.exit

is_funcclause.exit:                               ; preds = %7
  %10 = load i32, ptr %9, align 4
  %11 = icmp eq i32 %10, 15
  br i1 %11, label %12, label %is_funcclause.exit.thread

12:                                               ; preds = %is_funcclause.exit
  %13 = getelementptr inbounds nuw i8, ptr %9, i64 32
  %14 = load ptr, ptr %13, align 8
  %15 = getelementptr inbounds nuw i8, ptr %4, i64 8
  %16 = load ptr, ptr %15, align 8
  %17 = getelementptr i8, ptr %14, i64 16
  %.val = load ptr, ptr %17, align 8
  %18 = load ptr, ptr %.val, align 8
  %19 = tail call ptr @estimate_expression_value(ptr noundef %16, ptr noundef %18) #18
  %20 = load ptr, ptr %15, align 8
  %21 = tail call double @estimate_array_length(ptr noundef %20, ptr noundef %19) #18
  %22 = getelementptr inbounds nuw i8, ptr %4, i64 32
  store double %21, ptr %22, align 8
  br label %is_funcclause.exit.thread

is_funcclause.exit.thread:                        ; preds = %7, %is_funcclause.exit, %12, %1
  %.0 = phi i64 [ 0, %1 ], [ %3, %12 ], [ 0, %is_funcclause.exit ], [ 0, %7 ]
  ret i64 %.0
}